target datalayout = "e-m:e-p270:32:32-p271:32:32-p272:64:64-i64:64-i128:128-f80:128-n8:16:32:64-S128"
target triple = "x86_64-pc-linux-gnu"

%struct._object = type { %union.anon, ptr }
%union.anon = type { i64 }
%struct._structmodulestate = type { ptr, ptr, ptr, ptr }
%struct.Py_buffer = type { ptr, ptr, i64, i64, i32, i32, ptr, ptr, ptr, ptr, ptr }
%struct.PyModuleObject = type { %struct._object, ptr, ptr, ptr, ptr, ptr }
%struct.PyStructObject = type { %struct._object, i64, i64, ptr, ptr, ptr }

@.str.21 = private unnamed_addr constant [44 x i8] c"offset %zd out of range for %zd-byte buffer\00", align 1
@.str.27 = private unnamed_addr constant [50 x i8] c"not enough data to unpack %zd bytes at offset %zd\00", align 1
@.str.28 = private unnamed_addr constant [118 x i8] c"unpack_from requires a buffer of at least %zu bytes for unpacking %zd bytes at offset %zd (actual buffer size is %zd)\00", align 1

; Function Attrs: inlinehint nounwind uwtable
define internal ptr @_PyModule_GetState(ptr noundef %0) #2 {
  %2 = alloca ptr, align 8
  store ptr %0, ptr %2, align 8, !tbaa !3
  %3 = load ptr, ptr %2, align 8, !tbaa !3
  %4 = getelementptr inbounds nuw %struct.PyModuleObject, ptr %3, i32 0, i32 3
  %5 = load ptr, ptr %4, align 8, !tbaa !24
  ret ptr %5
}

; Function Attrs: inlinehint nounwind uwtable
define internal ptr @get_struct_state(ptr noundef %0) #2 {
  %2 = alloca ptr, align 8
  %3 = alloca ptr, align 8
  store ptr %0, ptr %2, align 8, !tbaa !3
  call void @llvm.lifetime.start.p0(i64 8, ptr %3) #8
  %4 = load ptr, ptr %2, align 8, !tbaa !3
  %5 = call ptr @_PyModule_GetState(ptr noundef %4)
  store ptr %5, ptr %3, align 8, !tbaa !8
  %6 = load ptr, ptr %3, align 8, !tbaa !8
  call void @llvm.lifetime.end.p0(i64 8, ptr %3) #8
  ret ptr %6
}

; Function Attrs: inlinehint nounwind uwtable
define internal ptr @_Py_TYPE(ptr noundef %0) #2 {
  %2 = alloca ptr, align 8
  store ptr %0, ptr %2, align 8, !tbaa !3
  %3 = load ptr, ptr %2, align 8, !tbaa !3
  %4 = getelementptr inbounds nuw %struct._object, ptr %3, i32 0, i32 1
  %5 = load ptr, ptr %4, align 8, !tbaa !41
  ret ptr %5
}

; Function Attrs: nounwind uwtable
define internal ptr @Struct_unpack_from_impl(ptr noundef %0, ptr noundef %1, i64 noundef %2) #0 {
  %4 = alloca ptr, align 8
  %5 = alloca ptr, align 8
  %6 = alloca ptr, align 8
  %7 = alloca i64, align 8
  %8 = alloca ptr, align 8
  %9 = alloca i32, align 4
  store ptr %0, ptr %5, align 8, !tbaa !8
  store ptr %1, ptr %6, align 8, !tbaa !8
  store i64 %2, ptr %7, align 8, !tbaa !18
  call void @llvm.lifetime.start.p0(i64 8, ptr %8) #8
  %10 = load ptr, ptr %5, align 8, !tbaa !8
  %11 = call ptr @_Py_TYPE(ptr noundef %10)
  %12 = call ptr @PyType_GetModuleByDef(ptr noundef %11, ptr noundef @_structmodule)
  %13 = call ptr @get_struct_state(ptr noundef %12)
  store ptr %13, ptr %8, align 8, !tbaa !8
  %14 = load i64, ptr %7, align 8, !tbaa !18
  %15 = icmp slt i64 %14, 0
  br i1 %15, label %16, label %54

16:                                               ; preds = %3
  %17 = load i64, ptr %7, align 8, !tbaa !18
  %18 = load ptr, ptr %5, align 8, !tbaa !8
  %19 = getelementptr inbounds nuw %struct.PyStructObject, ptr %18, i32 0, i32 1
  %20 = load i64, ptr %19, align 8, !tbaa !29
  %21 = add i64 %17, %20
  %22 = icmp sgt i64 %21, 0
  br i1 %22, label %23, label %32

23:                                               ; preds = %16
  %24 = load ptr, ptr %8, align 8, !tbaa !8
  %25 = getelementptr inbounds nuw %struct._structmodulestate, ptr %24, i32 0, i32 3
  %26 = load ptr, ptr %25, align 8, !tbaa !15
  %27 = load ptr, ptr %5, align 8, !tbaa !8
  %28 = getelementptr inbounds nuw %struct.PyStructObject, ptr %27, i32 0, i32 1
  %29 = load i64, ptr %28, align 8, !tbaa !29
  %30 = load i64, ptr %7, align 8, !tbaa !18
  %31 = call ptr (ptr, ptr, ...) @PyErr_Format(ptr noundef %26, ptr noundef @.str.27, i64 noundef %29, i64 noundef %30)
  store ptr null, ptr %4, align 8
  store i32 1, ptr %9, align 4
  br label %90

32:                                               ; preds = %16
  %33 = load i64, ptr %7, align 8, !tbaa !18
  %34 = load ptr, ptr %6, align 8, !tbaa !8
  %35 = getelementptr inbounds nuw %struct.Py_buffer, ptr %34, i32 0, i32 2
  %36 = load i64, ptr %35, align 8, !tbaa !70
  %37 = add i64 %33, %36
  %38 = icmp slt i64 %37, 0
  br i1 %38, label %39, label %48

39:                                               ; preds = %32
  %40 = load ptr, ptr %8, align 8, !tbaa !8
  %41 = getelementptr inbounds nuw %struct._structmodulestate, ptr %40, i32 0, i32 3
  %42 = load ptr, ptr %41, align 8, !tbaa !15
  %43 = load i64, ptr %7, align 8, !tbaa !18
  %44 = load ptr, ptr %6, align 8, !tbaa !8
  %45 = getelementptr inbounds nuw %struct.Py_buffer, ptr %44, i32 0, i32 2
  %46 = load i64, ptr %45, align 8, !tbaa !70
  %47 = call ptr (ptr, ptr, ...) @PyErr_Format(ptr noundef %42, ptr noundef @.str.21, i64 noundef %43, i64 noundef %46)
  store ptr null, ptr %4, align 8
  store i32 1, ptr %9, align 4
  br label %90

48:                                               ; preds = %32
  %49 = load ptr, ptr %6, align 8, !tbaa !8
  %50 = getelementptr inbounds nuw %struct.Py_buffer, ptr %49, i32 0, i32 2
  %51 = load i64, ptr %50, align 8, !tbaa !70
  %52 = load i64, ptr %7, align 8, !tbaa !18
  %53 = add i64 %52, %51
  store i64 %53, ptr %7, align 8, !tbaa !18
  br label %54

54:                                               ; preds = %48, %3
  %55 = load ptr, ptr %6, align 8, !tbaa !8
  %56 = getelementptr inbounds nuw %struct.Py_buffer, ptr %55, i32 0, i32 2
  %57 = load i64, ptr %56, align 8, !tbaa !70
  %58 = load i64, ptr %7, align 8, !tbaa !18
  %59 = sub i64 %57, %58
  %60 = load ptr, ptr %5, align 8, !tbaa !8
  %61 = getelementptr inbounds nuw %struct.PyStructObject, ptr %60, i32 0, i32 1
  %62 = load i64, ptr %61, align 8, !tbaa !29
  %63 = icmp slt i64 %59, %62
  br i1 %63, label %64, label %81

64:                                               ; preds = %54
  %65 = load ptr, ptr %8, align 8, !tbaa !8
  %66 = getelementptr inbounds nuw %struct._structmodulestate, ptr %65, i32 0, i32 3
  %67 = load ptr, ptr %66, align 8, !tbaa !15
  %68 = load ptr, ptr %5, align 8, !tbaa !8
  %69 = getelementptr inbounds nuw %struct.PyStructObject, ptr %68, i32 0, i32 1
  %70 = load i64, ptr %69, align 8, !tbaa !29
  %71 = load i64, ptr %7, align 8, !tbaa !18
  %72 = add i64 %70, %71
  %73 = load ptr, ptr %5, align 8, !tbaa !8
  %74 = getelementptr inbounds nuw %struct.PyStructObject, ptr %73, i32 0, i32 1
  %75 = load i64, ptr %74, align 8, !tbaa !29
  %76 = load i64, ptr %7, align 8, !tbaa !18
  %77 = load ptr, ptr %6, align 8, !tbaa !8
  %78 = getelementptr inbounds nuw %struct.Py_buffer, ptr %77, i32 0, i32 2
  %79 = load i64, ptr %78, align 8, !tbaa !70
  %80 = call ptr (ptr, ptr, ...) @PyErr_Format(ptr noundef %67, ptr noundef @.str.28, i64 noundef %72, i64 noundef %75, i64 noundef %76, i64 noundef %79)
  store ptr null, ptr %4, align 8
  store i32 1, ptr %9, align 4
  br label %90

81:                                               ; preds = %54
  %82 = load ptr, ptr %5, align 8, !tbaa !8
  %83 = load ptr, ptr %6, align 8, !tbaa !8
  %84 = getelementptr inbounds nuw %struct.Py_buffer, ptr %83, i32 0, i32 0
  %85 = load ptr, ptr %84, align 8, !tbaa !71
  %86 = load i64, ptr %7, align 8, !tbaa !18
  %87 = getelementptr i8, ptr %85, i64 %86
  %88 = load ptr, ptr %8, align 8, !tbaa !8
  %89 = call ptr @s_unpack_internal(ptr noundef %82, ptr noundef %87, ptr noundef %88)
  store ptr %89, ptr %4, align 8
  store i32 1, ptr %9, align 4
  br label %90

90:                                               ; preds = %81, %64, %39, %23
  call void @llvm.lifetime.end.p0(i64 8, ptr %8) #8
  %91 = load ptr, ptr %4, align 8
  ret ptr %91
}