; Function Attrs: nounwind uwtable
define internal fastcc ptr @Struct_unpack_from_impl(ptr noundef readonly captures(none) %0, ptr noundef nonnull readonly captures(none) %1, i64 noundef %2) unnamed_addr #0 {
  %4 = getelementptr i8, ptr %0, i64 8
  %.val31 = load ptr, ptr %4, align 8, !tbaa !24
  %5 = tail call ptr @PyType_GetModuleByDef(ptr noundef %.val31, ptr noundef nonnull @_structmodule) #7
  %6 = getelementptr i8, ptr %5, i64 32
  %.val = load ptr, ptr %6, align 8, !tbaa !3
  %7 = icmp slt i64 %2, 0
  br i1 %7, label %8, label %._crit_edge

._crit_edge:                                      ; preds = %3
  %.phi.trans.insert = getelementptr inbounds nuw i8, ptr %1, i64 16
  %.pre = load i64, ptr %.phi.trans.insert, align 8, !tbaa !25
  %.phi.trans.insert32 = getelementptr inbounds nuw i8, ptr %0, i64 16
  %.pre33 = load i64, ptr %.phi.trans.insert32, align 8, !tbaa !20
  br label %26

8:                                                ; preds = %3
  %9 = getelementptr inbounds nuw i8, ptr %0, i64 16
  %10 = load i64, ptr %9, align 8, !tbaa !20
  %11 = add i64 %10, %2
  %12 = icmp sgt i64 %11, 0
  br i1 %12, label %13, label %17

13:                                               ; preds = %8
  %14 = getelementptr inbounds nuw i8, ptr %.val, i64 24
  %15 = load ptr, ptr %14, align 8, !tbaa !16
  %16 = tail call ptr (ptr, ptr, ...) @PyErr_Format(ptr noundef %15, ptr noundef nonnull @.str.27, i64 noundef %10, i64 noundef %2) #7
  br label %40

17:                                               ; preds = %8
  %18 = getelementptr inbounds nuw i8, ptr %1, i64 16
  %19 = load i64, ptr %18, align 8, !tbaa !25
  %20 = add i64 %19, %2
  %21 = icmp slt i64 %20, 0
  br i1 %21, label %22, label %26

22:                                               ; preds = %17
  %23 = getelementptr inbounds nuw i8, ptr %.val, i64 24
  %24 = load ptr, ptr %23, align 8, !tbaa !16
  %25 = tail call ptr (ptr, ptr, ...) @PyErr_Format(ptr noundef %24, ptr noundef nonnull @.str.21, i64 noundef %2, i64 noundef %19) #7
  br label %40

26:                                               ; preds = %._crit_edge, %17
  %27 = phi i64 [ %.pre33, %._crit_edge ], [ %10, %17 ]
  %28 = phi i64 [ %.pre, %._crit_edge ], [ %19, %17 ]
  %.027 = phi i64 [ %2, %._crit_edge ], [ %20, %17 ]
  %29 = sub i64 %28, %.027
  %30 = icmp slt i64 %29, %27
  br i1 %30, label %31, label %36

31:                                               ; preds = %26
  %32 = getelementptr inbounds nuw i8, ptr %.val, i64 24
  %33 = load ptr, ptr %32, align 8, !tbaa !16
  %34 = add i64 %27, %.027
  %35 = tail call ptr (ptr, ptr, ...) @PyErr_Format(ptr noundef %33, ptr noundef nonnull @.str.28, i64 noundef %34, i64 noundef %27, i64 noundef %.027, i64 noundef %28) #7
  br label %40

36:                                               ; preds = %26
  %37 = load ptr, ptr %1, align 8, !tbaa !30
  %38 = getelementptr i8, ptr %37, i64 %.027
  %39 = tail call fastcc ptr @s_unpack_internal(ptr noundef nonnull %0, ptr noundef %38, ptr noundef %.val)
  br label %40

40:                                               ; preds = %36, %31, %22, %13
  %.0 = phi ptr [ null, %13 ], [ null, %22 ], [ null, %31 ], [ %39, %36 ]
  ret ptr %.0
}